(lp0
(dp1
S'name'
p2
S'myprofile'
p3
sS'value'
p4
(dp5
S'http'
p6
(dp7
S'user'
p8
S'123'
p9
sS'password'
p10
S'44'
p11
sS'proxy'
p12
S'test'
p13
sS'use_auth'
p14
I01
sS'port'
p15
S''
p16
ssS'noproxy'
p17
I00
sS'sameproxy'
p18
I01
ssa.